; Function Attrs: nofree nounwind uwtable
define internal fastcc void @print_msg(ptr noundef readonly captures(none) %0) unnamed_addr #15 {
  %.b1 = load i1, ptr @silent_mode, align 1
  br i1 %.b1, label %7, label %2

2:                                                ; preds = %1
  %3 = load ptr, ptr @stdout, align 8
  %4 = tail call i32 @fputs(ptr noundef %0, ptr noundef %3)
  %5 = load ptr, ptr @stdout, align 8
  %6 = tail call i32 @fflush(ptr noundef %5)
  br label %7

7:                                                ; preds = %2, %1
  ret void
}